; Function Attrs: mustprogress nounwind uwtable
define noundef i32 @_Z17tMPI_Error_stringiPcPm(i32 noundef %0, ptr noundef %1, ptr nocapture noundef writeonly %2) local_unnamed_addr #1 {
  %.not = icmp eq i32 %0, 2
  br i1 %.not, label %9, label %4

4:                                                ; preds = %3
  %spec.store.select = tail call i32 @llvm.umin.i32(i32 %0, i32 27)
  %5 = zext nneg i32 %spec.store.select to i64
  %6 = getelementptr inbounds [28 x ptr], ptr @_ZL11tmpi_errmsg, i64 0, i64 %5
  %7 = load ptr, ptr %6, align 8
  %8 = tail call ptr @strncpy(ptr noundef nonnull dereferenceable(1) %1, ptr noundef nonnull dereferenceable(1) %7, i64 noundef 256) #16
  br label %14

9:                                                ; preds = %3
  %10 = tail call ptr @__errno_location() #17
  %11 = load i32, ptr %10, align 4
  %12 = tail call ptr @strerror(i32 noundef %11) #16
  %13 = tail call i32 (ptr, i64, ptr, ...) @snprintf(ptr noundef nonnull dereferenceable(1) %1, i64 noundef 256, ptr noundef nonnull @.str, ptr noundef nonnull @.str.6, ptr noundef %12) #16
  br label %14

14:                                               ; preds = %9, %4
  %15 = tail call i64 @strlen(ptr noundef nonnull dereferenceable(1) %1) #20
  store i64 %15, ptr %2, align 8
  ret i32 0
}